target datalayout = "e-m:e-p270:32:32-p271:32:32-p272:64:64-i64:64-i128:128-f80:128-n8:16:32:64-S128"
target triple = "x86_64-pc-linux-gnu"

%struct.slurm_conf_t = type { i64, ptr, i16, ptr, ptr, ptr, ptr, ptr, i16, ptr, ptr, ptr, ptr, ptr, ptr, ptr, i16, ptr, ptr, ptr, ptr, i16, ptr, ptr, ptr, i64, ptr, ptr, ptr, ptr, i16, ptr, ptr, i16, i32, ptr, i32, ptr, i32, i32, ptr, ptr, i64, i64, ptr, i16, i16, ptr, i32, i32, ptr, i32, ptr, i32, i16, i16, i16, ptr, i16, i16, ptr, ptr, i32, i16, i16, ptr, i32, i16, ptr, ptr, ptr, ptr, i16, ptr, ptr, ptr, ptr, i32, ptr, ptr, ptr, ptr, i16, i16, ptr, i32, i32, i32, i16, i16, ptr, ptr, i16, ptr, ptr, i32, i32, i32, i32, i32, i64, i32, i32, i16, ptr, ptr, i32, ptr, ptr, ptr, i16, i32, ptr, ptr, i16, ptr, ptr, i32, i16, ptr, ptr, ptr, ptr, i32, i32, i16, i16, i32, ptr, i16, ptr, i32, i32, i32, i32, i32, i32, ptr, i16, ptr, ptr, i32, i16, ptr, i32, i16, i16, ptr, ptr, ptr, i16, ptr, ptr, ptr, ptr, i16, i16, ptr, i16, ptr, i16, ptr, i16, ptr, i16, ptr, ptr, ptr, ptr, i16, ptr, ptr, ptr, i32, ptr, i32, ptr, ptr, i16, ptr, ptr, i32, i16, ptr, ptr, i16, i16, ptr, i16, ptr, ptr, ptr, i32, ptr, i16, i16, ptr, ptr, ptr, ptr, ptr, ptr, ptr, ptr, i16, i32, i16, ptr, ptr, ptr, ptr, i32, ptr, ptr, ptr, i16, ptr, ptr, ptr, i16, ptr, i16, ptr, i16, i16, ptr }

@slurmdbd_conf = dso_local global ptr null, align 8
@slurm_conf = external global %struct.slurm_conf_t, align 8
@_global_auth_key.loaded_storage_pass = internal global i8 0, align 1
@_global_auth_key.storage_pass = internal global [512 x i8] zeroinitializer, align 16
@_global_auth_key.storage_pass_ptr = internal global ptr null, align 8
@.str.92 = private unnamed_addr constant [21 x i8] c"AuthInfo is too long\00", align 1
@.str.93 = private unnamed_addr constant [34 x i8] c"AccountingStoragePass is too long\00", align 1

; Function Attrs: nounwind uwtable
define internal ptr @_global_auth_key() #0 {
  %1 = alloca ptr, align 8
  %2 = alloca ptr, align 8
  %3 = load i8, ptr @_global_auth_key.loaded_storage_pass, align 1, !range !16, !noundef !17
  %4 = trunc i8 %3 to i1
  br i1 %4, label %5, label %7

5:                                                ; preds = %0
  %6 = load ptr, ptr @_global_auth_key.storage_pass_ptr, align 8
  store ptr %6, ptr %1, align 8
  br label %37

7:                                                ; preds = %0
  %8 = load ptr, ptr @slurmdbd_conf, align 8
  %9 = icmp ne ptr %8, null
  br i1 %9, label %10, label %20

10:                                               ; preds = %7
  %11 = load ptr, ptr getelementptr inbounds nuw (%struct.slurm_conf_t, ptr @slurm_conf, i32 0, i32 18), align 8
  %12 = icmp ne ptr %11, null
  br i1 %12, label %13, label %19

13:                                               ; preds = %10
  %14 = load ptr, ptr getelementptr inbounds nuw (%struct.slurm_conf_t, ptr @slurm_conf, i32 0, i32 18), align 8
  %15 = call i64 @strlcpy(ptr noundef @_global_auth_key.storage_pass, ptr noundef %14, i64 noundef 512)
  %16 = icmp uge i64 %15, 512
  br i1 %16, label %17, label %18

17:                                               ; preds = %13
  call void (ptr, ...) @fatal(ptr noundef @.str.92) #15
  unreachable

18:                                               ; preds = %13
  store ptr @_global_auth_key.storage_pass, ptr @_global_auth_key.storage_pass_ptr, align 8
  br label %19

19:                                               ; preds = %18, %10
  br label %35

20:                                               ; preds = %7
  call void @llvm.lifetime.start.p0(i64 8, ptr %2) #12
  %21 = call ptr @slurm_conf_lock()
  store ptr %21, ptr %2, align 8
  %22 = load ptr, ptr %2, align 8
  %23 = getelementptr inbounds nuw %struct.slurm_conf_t, ptr %22, i32 0, i32 7
  %24 = load ptr, ptr %23, align 8
  %25 = icmp ne ptr %24, null
  br i1 %25, label %26, label %34

26:                                               ; preds = %20
  %27 = load ptr, ptr %2, align 8
  %28 = getelementptr inbounds nuw %struct.slurm_conf_t, ptr %27, i32 0, i32 7
  %29 = load ptr, ptr %28, align 8
  %30 = call i64 @strlcpy(ptr noundef @_global_auth_key.storage_pass, ptr noundef %29, i64 noundef 512)
  %31 = icmp uge i64 %30, 512
  br i1 %31, label %32, label %33

32:                                               ; preds = %26
  call void (ptr, ...) @fatal(ptr noundef @.str.93) #15
  unreachable

33:                                               ; preds = %26
  store ptr @_global_auth_key.storage_pass, ptr @_global_auth_key.storage_pass_ptr, align 8
  br label %34

34:                                               ; preds = %33, %20
  call void @slurm_conf_unlock()
  call void @llvm.lifetime.end.p0(i64 8, ptr %2) #12
  br label %35

35:                                               ; preds = %34, %19
  store i8 1, ptr @_global_auth_key.loaded_storage_pass, align 1
  %36 = load ptr, ptr @_global_auth_key.storage_pass_ptr, align 8
  store ptr %36, ptr %1, align 8
  br label %37

37:                                               ; preds = %35, %5
  %38 = load ptr, ptr %1, align 8
  ret ptr %38
}