; Function Attrs: nounwind uwtable
define internal fastcc ptr @_global_auth_key() unnamed_addr #1 {
  %.b5 = load i1, ptr @_global_auth_key.loaded_storage_pass, align 1
  br i1 %.b5, label %21, label %1

1:                                                ; preds = %0
  %2 = load ptr, ptr @slurmdbd_conf, align 8
  %.not = icmp eq ptr %2, null
  br i1 %.not, label %10, label %3

3:                                                ; preds = %1
  %4 = load ptr, ptr getelementptr inbounds nuw (i8, ptr @slurm_conf, i64 144), align 8
  %.not7 = icmp eq ptr %4, null
  br i1 %.not7, label %20, label %5

5:                                                ; preds = %3
  %6 = tail call i64 @strlcpy(ptr noundef nonnull dereferenceable(1) @_global_auth_key.storage_pass, ptr noundef nonnull dereferenceable(1) %4, i64 noundef 512) #19
  %7 = icmp ugt i64 %6, 511
  br i1 %7, label %8, label %9

8:                                                ; preds = %5
  tail call void (ptr, ...) @fatal(ptr noundef nonnull @.str.92) #22
  unreachable

9:                                                ; preds = %5
  store ptr @_global_auth_key.storage_pass, ptr @_global_auth_key.storage_pass_ptr, align 8
  br label %20

10:                                               ; preds = %1
  %11 = tail call ptr @slurm_conf_lock() #19
  %12 = getelementptr inbounds nuw i8, ptr %11, i64 56
  %13 = load ptr, ptr %12, align 8
  %.not6 = icmp eq ptr %13, null
  br i1 %.not6, label %19, label %14

14:                                               ; preds = %10
  %15 = tail call i64 @strlcpy(ptr noundef nonnull dereferenceable(1) @_global_auth_key.storage_pass, ptr noundef nonnull dereferenceable(1) %13, i64 noundef 512) #19
  %16 = icmp ugt i64 %15, 511
  br i1 %16, label %17, label %18

17:                                               ; preds = %14
  tail call void (ptr, ...) @fatal(ptr noundef nonnull @.str.93) #22
  unreachable

18:                                               ; preds = %14
  store ptr @_global_auth_key.storage_pass, ptr @_global_auth_key.storage_pass_ptr, align 8
  br label %19

19:                                               ; preds = %18, %10
  tail call void @slurm_conf_unlock() #19
  br label %20

20:                                               ; preds = %3, %9, %19
  store i1 true, ptr @_global_auth_key.loaded_storage_pass, align 1
  br label %21

21:                                               ; preds = %0, %20
  %.0 = load ptr, ptr @_global_auth_key.storage_pass_ptr, align 8
  ret ptr %.0
}